target datalayout = "e-m:e-p270:32:32-p271:32:32-p272:64:64-i64:64-i128:128-f80:128-n8:16:32:64-S128"
target triple = "x86_64-pc-linux-gnu"

@.str.99 = private unnamed_addr constant [5 x i8] c"%10d\00", align 1
@.str.100 = private unnamed_addr constant [4 x i8] c"N/A\00", align 1
@.str.101 = private unnamed_addr constant [4 x i8] c"%4d\00", align 1
@.str.102 = private unnamed_addr constant [45 x i8] c" %-22.22s %4s %4s %10s  %10.3f %14.3f %5.1f\0A\00", align 1

; Function Attrs: mustprogress nounwind uwtable
define internal void @_ZL12print_cyclesP8_IO_FILEdPKciiidd(ptr noundef %0, double noundef %1, ptr noundef %2, i32 noundef %3, i32 noundef %4, i32 noundef %5, double noundef %6, double noundef %7) #1 {
  %9 = alloca ptr, align 8
  %10 = alloca double, align 8
  %11 = alloca ptr, align 8
  %12 = alloca i32, align 4
  %13 = alloca i32, align 4
  %14 = alloca i32, align 4
  %15 = alloca double, align 8
  %16 = alloca double, align 8
  %17 = alloca [4096 x i8], align 16
  %18 = alloca [4096 x i8], align 16
  %19 = alloca [4096 x i8], align 16
  %20 = alloca double, align 8
  %21 = alloca double, align 8
  store ptr %0, ptr %9, align 8
  store double %1, ptr %10, align 8
  store ptr %2, ptr %11, align 8
  store i32 %3, ptr %12, align 4
  store i32 %4, ptr %13, align 4
  store i32 %5, ptr %14, align 4
  store double %6, ptr %15, align 8
  store double %7, ptr %16, align 8
  %22 = load double, ptr %16, align 8
  %23 = fcmp ogt double %22, 0.000000e+00
  br i1 %23, label %24, label %29

24:                                               ; preds = %8
  %25 = load double, ptr %15, align 8
  %26 = fmul double 1.000000e+02, %25
  %27 = load double, ptr %16, align 8
  %28 = fdiv double %26, %27
  br label %30

29:                                               ; preds = %8
  br label %30

30:                                               ; preds = %29, %24
  %31 = phi double [ %28, %24 ], [ 0.000000e+00, %29 ]
  store double %31, ptr %21, align 8
  %32 = load double, ptr %15, align 8
  %33 = fcmp ogt double %32, 0.000000e+00
  br i1 %33, label %34, label %79

34:                                               ; preds = %30
  %35 = load i32, ptr %14, align 4
  %36 = icmp sgt i32 %35, 0
  br i1 %36, label %37, label %61

37:                                               ; preds = %34
  %38 = getelementptr inbounds [4096 x i8], ptr %19, i64 0, i64 0
  %39 = load i32, ptr %14, align 4
  %40 = call i32 (ptr, i64, ptr, ...) @snprintf(ptr noundef %38, i64 noundef 4096, ptr noundef @.str.99, i32 noundef %39) #13
  %41 = load i32, ptr %12, align 4
  %42 = icmp slt i32 %41, 0
  br i1 %42, label %43, label %46

43:                                               ; preds = %37
  %44 = getelementptr inbounds [4096 x i8], ptr %17, i64 0, i64 0
  %45 = call i32 (ptr, i64, ptr, ...) @snprintf(ptr noundef %44, i64 noundef 4096, ptr noundef @.str.100) #13
  br label %50

46:                                               ; preds = %37
  %47 = getelementptr inbounds [4096 x i8], ptr %17, i64 0, i64 0
  %48 = load i32, ptr %12, align 4
  %49 = call i32 (ptr, i64, ptr, ...) @snprintf(ptr noundef %47, i64 noundef 4096, ptr noundef @.str.101, i32 noundef %48) #13
  br label %50

50:                                               ; preds = %46, %43
  %51 = load i32, ptr %13, align 4
  %52 = icmp slt i32 %51, 0
  br i1 %52, label %53, label %56

53:                                               ; preds = %50
  %54 = getelementptr inbounds [4096 x i8], ptr %18, i64 0, i64 0
  %55 = call i32 (ptr, i64, ptr, ...) @snprintf(ptr noundef %54, i64 noundef 4096, ptr noundef @.str.100) #13
  br label %60

56:                                               ; preds = %50
  %57 = getelementptr inbounds [4096 x i8], ptr %18, i64 0, i64 0
  %58 = load i32, ptr %13, align 4
  %59 = call i32 (ptr, i64, ptr, ...) @snprintf(ptr noundef %57, i64 noundef 4096, ptr noundef @.str.101, i32 noundef %58) #13
  br label %60

60:                                               ; preds = %56, %53
  br label %65

61:                                               ; preds = %34
  %62 = getelementptr inbounds [4096 x i8], ptr %17, i64 0, i64 0
  store i8 0, ptr %62, align 16
  %63 = getelementptr inbounds [4096 x i8], ptr %18, i64 0, i64 0
  store i8 0, ptr %63, align 16
  %64 = getelementptr inbounds [4096 x i8], ptr %19, i64 0, i64 0
  store i8 0, ptr %64, align 16
  br label %65

65:                                               ; preds = %61, %60
  %66 = load double, ptr %15, align 8
  %67 = load double, ptr %10, align 8
  %68 = fmul double %66, %67
  store double %68, ptr %20, align 8
  %69 = load ptr, ptr %9, align 8
  %70 = load ptr, ptr %11, align 8
  %71 = getelementptr inbounds [4096 x i8], ptr %17, i64 0, i64 0
  %72 = getelementptr inbounds [4096 x i8], ptr %18, i64 0, i64 0
  %73 = getelementptr inbounds [4096 x i8], ptr %19, i64 0, i64 0
  %74 = load double, ptr %20, align 8
  %75 = load double, ptr %15, align 8
  %76 = fmul double %75, 1.000000e-09
  %77 = load double, ptr %21, align 8
  %78 = call i32 (ptr, ptr, ...) @fprintf(ptr noundef %69, ptr noundef @.str.102, ptr noundef %70, ptr noundef %71, ptr noundef %72, ptr noundef %73, double noundef %74, double noundef %76, double noundef %77) #13
  br label %79

79:                                               ; preds = %65, %30
  ret void
}