; Function Attrs: mustprogress nofree nounwind uwtable
define internal fastcc void @_ZL12print_cyclesP8_IO_FILEdPKciiidd(ptr nocapture noundef %0, double noundef %1, ptr noundef %2, i32 noundef %3, i32 noundef %4, i32 noundef %5, double noundef %6, double noundef %7) unnamed_addr #15 {
  %9 = alloca [4096 x i8], align 16
  %10 = alloca [4096 x i8], align 16
  %11 = alloca [4096 x i8], align 16
  %12 = fcmp ogt double %7, 0.000000e+00
  %13 = fmul double %6, 1.000000e+02
  %14 = fdiv double %13, %7
  %15 = select i1 %12, double %14, double 0.000000e+00
  %16 = fcmp ogt double %6, 0.000000e+00
  br i1 %16, label %17, label %35

17:                                               ; preds = %8
  %18 = icmp sgt i32 %5, 0
  br i1 %18, label %19, label %30

19:                                               ; preds = %17
  %20 = call i32 (ptr, i64, ptr, ...) @snprintf(ptr noundef nonnull dereferenceable(1) %11, i64 noundef 4096, ptr noundef nonnull @.str.99, i32 noundef %5) #24
  %21 = icmp slt i32 %3, 0
  br i1 %21, label %22, label %23

22:                                               ; preds = %19
  store i32 4271950, ptr %9, align 16
  br label %25

23:                                               ; preds = %19
  %24 = call i32 (ptr, i64, ptr, ...) @snprintf(ptr noundef nonnull dereferenceable(1) %9, i64 noundef 4096, ptr noundef nonnull @.str.101, i32 noundef %3) #24
  br label %25

25:                                               ; preds = %23, %22
  %26 = icmp slt i32 %4, 0
  br i1 %26, label %27, label %28

27:                                               ; preds = %25
  store i32 4271950, ptr %10, align 16
  br label %31

28:                                               ; preds = %25
  %29 = call i32 (ptr, i64, ptr, ...) @snprintf(ptr noundef nonnull dereferenceable(1) %10, i64 noundef 4096, ptr noundef nonnull @.str.101, i32 noundef %4) #24
  br label %31

30:                                               ; preds = %17
  store i8 0, ptr %9, align 16
  store i8 0, ptr %10, align 16
  store i8 0, ptr %11, align 16
  br label %31

31:                                               ; preds = %27, %28, %30
  %32 = fmul double %1, %6
  %33 = fmul double %6, 1.000000e-09
  %34 = call i32 (ptr, ptr, ...) @fprintf(ptr noundef %0, ptr noundef nonnull @.str.102, ptr noundef %2, ptr noundef nonnull %9, ptr noundef nonnull %10, ptr noundef nonnull %11, double noundef %32, double noundef %33, double noundef %15) #24
  br label %35

35:                                               ; preds = %31, %8
  ret void
}